; Function Attrs: mustprogress uwtable
define internal void @_ZN7rocksdb12_GLOBAL__N_18PosixEnv11WaitForJoinEv(ptr nocapture noundef nonnull readonly align 8 dereferenceable(200) %this) unnamed_addr #3 align 2 personality ptr @__gxx_personality_v0 {
entry:
  %threads_to_join_ = getelementptr inbounds i8, ptr %this, i64 184
  %0 = load ptr, ptr %threads_to_join_, align 8
  %1 = load ptr, ptr %0, align 8
  %_M_finish.i = getelementptr inbounds i8, ptr %0, i64 8
  %2 = load ptr, ptr %_M_finish.i, align 8
  %cmp.i.not4 = icmp eq ptr %1, %2
  br i1 %cmp.i.not4, label %_ZNSt6vectorImSaImEE5clearEv.exit, label %for.body

for.body:                                         ; preds = %entry, %for.body
  %__begin2.sroa.0.05 = phi ptr [ %incdec.ptr.i, %for.body ], [ %1, %entry ]
  %3 = load i64, ptr %__begin2.sroa.0.05, align 8
  %call6 = tail call i32 @pthread_join(i64 noundef %3, ptr noundef null)
  %incdec.ptr.i = getelementptr inbounds i8, ptr %__begin2.sroa.0.05, i64 8
  %cmp.i.not = icmp eq ptr %incdec.ptr.i, %2
  br i1 %cmp.i.not, label %for.end, label %for.body

for.end:                                          ; preds = %for.body
  %.pre = load ptr, ptr %threads_to_join_, align 8
  %.pre6 = load ptr, ptr %.pre, align 8
  %_M_finish.i.i.phi.trans.insert = getelementptr inbounds i8, ptr %.pre, i64 8
  %.pre7 = load ptr, ptr %_M_finish.i.i.phi.trans.insert, align 8
  %tobool.not.i.i = icmp eq ptr %.pre7, %.pre6
  br i1 %tobool.not.i.i, label %_ZNSt6vectorImSaImEE5clearEv.exit, label %invoke.cont.i.i

invoke.cont.i.i:                                  ; preds = %for.end
  %_M_finish.i.i = getelementptr inbounds i8, ptr %.pre, i64 8
  store ptr %.pre6, ptr %_M_finish.i.i, align 8
  br label %_ZNSt6vectorImSaImEE5clearEv.exit

_ZNSt6vectorImSaImEE5clearEv.exit:                ; preds = %entry, %for.end, %invoke.cont.i.i
  ret void
}